; Function Attrs: mustprogress nounwind uwtable
define dso_local noundef double @_ZN4node6timers11BindingData15FastGetLibuvNowEN2v85LocalINS2_6ObjectEEE(ptr %receiver.coerce) #3 align 2 {
entry:
  %0 = load i64, ptr %receiver.coerce, align 8
  %sub.i.i27.i.i = add i64 %0, -1
  %1 = inttoptr i64 %sub.i.i27.i.i to ptr
  %2 = load i64, ptr %1, align 8
  %sub.i30.i.i = add i64 %2, 11
  %3 = inttoptr i64 %sub.i30.i.i to ptr
  %4 = load i16, ptr %3, align 2
  %conv.i.i.i = zext i16 %4 to i32
  %cmp.i.i.i = icmp eq i16 %4, 1040
  %sub.i.i.i = add nsw i32 %conv.i.i.i, -1057
  %cmp1.i.i.i = icmp ult i32 %sub.i.i.i, 1002
  %5 = select i1 %cmp.i.i.i, i1 true, i1 %cmp1.i.i.i
  br i1 %5, label %if.then.i.i.i, label %if.end.i.i.i

if.then.i.i.i:                                    ; preds = %entry
  %sub.i.i.i.i = add i64 %0, 31
  %6 = inttoptr i64 %sub.i.i.i.i to ptr
  %7 = load i64, ptr %6, align 8
  %8 = inttoptr i64 %7 to ptr
  br label %_ZN4node10BaseObject12FromJSObjectINS_6timers11BindingDataEEEPT_N2v85LocalINS6_5ValueEEE.exit

if.end.i.i.i:                                     ; preds = %entry
  %call7.i.i.i = tail call noundef ptr @_ZN2v86Object38SlowGetAlignedPointerFromInternalFieldEi(ptr noundef nonnull align 1 dereferenceable(1) %receiver.coerce, i32 noundef 1) #15
  br label %_ZN4node10BaseObject12FromJSObjectINS_6timers11BindingDataEEEPT_N2v85LocalINS6_5ValueEEE.exit

_ZN4node10BaseObject12FromJSObjectINS_6timers11BindingDataEEEPT_N2v85LocalINS6_5ValueEEE.exit: ; preds = %if.then.i.i.i, %if.end.i.i.i
  %retval.i12.0.i.i = phi ptr [ %8, %if.then.i.i.i ], [ %call7.i.i.i, %if.end.i.i.i ]
  %realm_.i.i = getelementptr inbounds i8, ptr %retval.i12.0.i.i, i64 16
  %9 = load ptr, ptr %realm_.i.i, align 8
  %env_.i.i.i = getelementptr inbounds i8, ptr %9, i64 176
  %10 = load ptr, ptr %env_.i.i.i, align 8
  %call1.i = tail call noundef i64 @_ZN4node11Environment12GetNowUint64Ev(ptr noundef nonnull align 8 dereferenceable(2872) %10) #15
  %conv.i = uitofp i64 %call1.i to double
  ret double %conv.i
}